target datalayout = "e-m:e-p270:32:32-p271:32:32-p272:64:64-i64:64-i128:128-f80:128-n8:16:32:64-S128"
target triple = "x86_64-pc-linux-gnu"

@cdb_control_fields = hidden constant [6 x ptr] [ptr @hf_scsi_control_vendor_specific, ptr @hf_scsi_control_reserved, ptr @hf_scsi_control_naca, ptr @hf_scsi_control_obs1, ptr @hf_scsi_control_obs2, ptr null], align 16
@hf_scsi_control = hidden global i32 0, align 4
@ett_scsi_control = hidden global i32 0, align 4
@hf_scsi_wb_mode = internal global i32 0, align 4
@hf_scsi_wb_bufferid = internal global i32 0, align 4
@hf_scsi_wb_bufoffset = internal global i32 0, align 4
@hf_scsi_paramlen24 = internal global i32 0, align 4

; Function Attrs: nounwind uwtable
define hidden void @dissect_spc_writebuffer(ptr noundef %0, ptr noundef %1, ptr noundef %2, i32 noundef %3, i32 noundef %4, i32 noundef %5, i32 noundef %6, ptr noundef %7) #0 {
  %9 = alloca ptr, align 8
  %10 = alloca ptr, align 8
  %11 = alloca ptr, align 8
  %12 = alloca i32, align 4
  %13 = alloca i32, align 4
  %14 = alloca i32, align 4
  %15 = alloca i32, align 4
  %16 = alloca ptr, align 8
  store ptr %0, ptr %9, align 8
  store ptr %1, ptr %10, align 8
  store ptr %2, ptr %11, align 8
  store i32 %3, ptr %12, align 4
  store i32 %4, ptr %13, align 4
  store i32 %5, ptr %14, align 4
  store i32 %6, ptr %15, align 4
  store ptr %7, ptr %16, align 8
  %17 = load ptr, ptr %11, align 8
  %18 = icmp ne ptr %17, null
  br i1 %18, label %23, label %19

19:                                               ; preds = %8
  %20 = load i32, ptr %13, align 4
  %21 = icmp ne i32 %20, 0
  br i1 %21, label %23, label %22

22:                                               ; preds = %19
  br label %54

23:                                               ; preds = %19, %8
  %24 = load ptr, ptr %11, align 8
  %25 = load i32, ptr @hf_scsi_wb_mode, align 4
  %26 = load ptr, ptr %9, align 8
  %27 = load i32, ptr %12, align 4
  %28 = call ptr @proto_tree_add_item(ptr noundef %24, i32 noundef %25, ptr noundef %26, i32 noundef %27, i32 noundef 1, i32 noundef 0)
  %29 = load ptr, ptr %11, align 8
  %30 = load i32, ptr @hf_scsi_wb_bufferid, align 4
  %31 = load ptr, ptr %9, align 8
  %32 = load i32, ptr %12, align 4
  %33 = add i32 %32, 1
  %34 = call ptr @proto_tree_add_item(ptr noundef %29, i32 noundef %30, ptr noundef %31, i32 noundef %33, i32 noundef 1, i32 noundef 0)
  %35 = load ptr, ptr %11, align 8
  %36 = load i32, ptr @hf_scsi_wb_bufoffset, align 4
  %37 = load ptr, ptr %9, align 8
  %38 = load i32, ptr %12, align 4
  %39 = add i32 %38, 2
  %40 = call ptr @proto_tree_add_item(ptr noundef %35, i32 noundef %36, ptr noundef %37, i32 noundef %39, i32 noundef 3, i32 noundef 0)
  %41 = load ptr, ptr %11, align 8
  %42 = load i32, ptr @hf_scsi_paramlen24, align 4
  %43 = load ptr, ptr %9, align 8
  %44 = load i32, ptr %12, align 4
  %45 = add i32 %44, 5
  %46 = call ptr @proto_tree_add_item(ptr noundef %41, i32 noundef %42, ptr noundef %43, i32 noundef %45, i32 noundef 3, i32 noundef 0)
  %47 = load ptr, ptr %11, align 8
  %48 = load ptr, ptr %9, align 8
  %49 = load i32, ptr %12, align 4
  %50 = add i32 %49, 8
  %51 = load i32, ptr @hf_scsi_control, align 4
  %52 = load i32, ptr @ett_scsi_control, align 4
  %53 = call ptr @proto_tree_add_bitmask(ptr noundef %47, ptr noundef %48, i32 noundef %50, i32 noundef %51, i32 noundef %52, ptr noundef @cdb_control_fields, i32 noundef 0)
  br label %54

54:                                               ; preds = %23, %22
  ret void
}