; Function Attrs: nounwind uwtable
define hidden void @dissect_spc_writebuffer(ptr noundef %0, ptr readnone captures(none) %1, ptr noundef %2, i32 noundef %3, i32 noundef %4, i32 %5, i32 %6, ptr readnone captures(none) %7) #0 {
  %9 = icmp ne ptr %2, null
  %10 = icmp ne i32 %4, 0
  %or.cond = or i1 %9, %10
  br i1 %or.cond, label %11, label %27

11:                                               ; preds = %8
  %12 = load i32, ptr @hf_scsi_wb_mode, align 4
  %13 = tail call ptr @proto_tree_add_item(ptr noundef %2, i32 noundef %12, ptr noundef %0, i32 noundef %3, i32 noundef 1, i32 noundef 0) #10
  %14 = load i32, ptr @hf_scsi_wb_bufferid, align 4
  %15 = add i32 %3, 1
  %16 = tail call ptr @proto_tree_add_item(ptr noundef %2, i32 noundef %14, ptr noundef %0, i32 noundef %15, i32 noundef 1, i32 noundef 0) #10
  %17 = load i32, ptr @hf_scsi_wb_bufoffset, align 4
  %18 = add i32 %3, 2
  %19 = tail call ptr @proto_tree_add_item(ptr noundef %2, i32 noundef %17, ptr noundef %0, i32 noundef %18, i32 noundef 3, i32 noundef 0) #10
  %20 = load i32, ptr @hf_scsi_paramlen24, align 4
  %21 = add i32 %3, 5
  %22 = tail call ptr @proto_tree_add_item(ptr noundef %2, i32 noundef %20, ptr noundef %0, i32 noundef %21, i32 noundef 3, i32 noundef 0) #10
  %23 = add i32 %3, 8
  %24 = load i32, ptr @hf_scsi_control, align 4
  %25 = load i32, ptr @ett_scsi_control, align 4
  %26 = tail call ptr @proto_tree_add_bitmask(ptr noundef %2, ptr noundef %0, i32 noundef %23, i32 noundef %24, i32 noundef %25, ptr noundef nonnull @cdb_control_fields, i32 noundef 0) #10
  br label %27

27:                                               ; preds = %8, %11
  ret void
}